target datalayout = "e-m:e-p270:32:32-p271:32:32-p272:64:64-i64:64-i128:128-f80:128-n8:16:32:64-S128"
target triple = "x86_64-pc-linux-gnu"

%class.cmCTestResourceGroupsLexerHelper = type { ptr, i32, %"class.std::__cxx11::basic_string", i32, %"class.std::vector" }
%"class.std::__cxx11::basic_string" = type { %"struct.std::__cxx11::basic_string<char>::_Alloc_hider", i64, %union.anon }
%"struct.std::__cxx11::basic_string<char>::_Alloc_hider" = type { ptr }
%union.anon = type { i64, [8 x i8] }
%"class.std::vector" = type { %"struct.std::_Vector_base" }
%"struct.std::_Vector_base" = type { %"struct.std::_Vector_base<cmCTestTestHandler::cmCTestTestResourceRequirement, std::allocator<cmCTestTestHandler::cmCTestTestResourceRequirement>>::_Vector_impl" }
%"struct.std::_Vector_base<cmCTestTestHandler::cmCTestTestResourceRequirement, std::allocator<cmCTestTestHandler::cmCTestTestResourceRequirement>>::_Vector_impl" = type { %"struct.std::_Vector_base<cmCTestTestHandler::cmCTestTestResourceRequirement, std::allocator<cmCTestTestHandler::cmCTestTestResourceRequirement>>::_Vector_impl_data" }
%"struct.std::_Vector_base<cmCTestTestHandler::cmCTestTestResourceRequirement, std::allocator<cmCTestTestHandler::cmCTestTestResourceRequirement>>::_Vector_impl_data" = type { ptr, ptr, ptr }
%"struct.cmCTestTestHandler::cmCTestTestResourceRequirement" = type { %"class.std::__cxx11::basic_string", i32, i32 }
%"class.__gnu_cxx::__normal_iterator.8" = type { ptr }
%"struct.std::_Vector_base.4" = type { %"struct.std::_Vector_base<std::vector<cmCTestTestHandler::cmCTestTestResourceRequirement>, std::allocator<std::vector<cmCTestTestHandler::cmCTestTestResourceRequirement>>>::_Vector_impl" }
%"struct.std::_Vector_base<std::vector<cmCTestTestHandler::cmCTestTestResourceRequirement>, std::allocator<std::vector<cmCTestTestHandler::cmCTestTestResourceRequirement>>>::_Vector_impl" = type { %"struct.std::_Vector_base<std::vector<cmCTestTestHandler::cmCTestTestResourceRequirement>, std::allocator<std::vector<cmCTestTestHandler::cmCTestTestResourceRequirement>>>::_Vector_impl_data" }
%"struct.std::_Vector_base<std::vector<cmCTestTestHandler::cmCTestTestResourceRequirement>, std::allocator<std::vector<cmCTestTestHandler::cmCTestTestResourceRequirement>>>::_Vector_impl_data" = type { ptr, ptr, ptr }

; Function Attrs: mustprogress nounwind uwtable
define linkonce_odr dso_local void @_ZN18cmCTestTestHandler30cmCTestTestResourceRequirementD2Ev(ptr noundef nonnull align 8 dereferenceable(40) %0) unnamed_addr #4 comdat align 2 {
  %2 = alloca ptr, align 8
  store ptr %0, ptr %2, align 8
  %3 = load ptr, ptr %2, align 8
  %4 = getelementptr inbounds %"struct.cmCTestTestHandler::cmCTestTestResourceRequirement", ptr %3, i32 0, i32 0
  call void @_ZNSt7__cxx1112basic_stringIcSt11char_traitsIcESaIcEED1Ev(ptr noundef nonnull align 8 dereferenceable(32) %4) #3
  ret void
}

; Function Attrs: mustprogress nounwind uwtable
define linkonce_odr dso_local void @_ZSt8_DestroyIN18cmCTestTestHandler30cmCTestTestResourceRequirementEEvPT_(ptr noundef %0) #4 comdat {
  %2 = alloca ptr, align 8
  store ptr %0, ptr %2, align 8
  %3 = load ptr, ptr %2, align 8
  call void @_ZN18cmCTestTestHandler30cmCTestTestResourceRequirementD2Ev(ptr noundef nonnull align 8 dereferenceable(40) %3) #3
  ret void
}

; Function Attrs: mustprogress uwtable
define linkonce_odr dso_local void @_ZNSt12_Destroy_auxILb0EE9__destroyIPN18cmCTestTestHandler30cmCTestTestResourceRequirementEEEvT_S5_(ptr noundef %0, ptr noundef %1) #5 comdat align 2 {
  %3 = alloca ptr, align 8
  %4 = alloca ptr, align 8
  store ptr %0, ptr %3, align 8
  store ptr %1, ptr %4, align 8
  br label %5

5:                                                ; preds = %11, %2
  %6 = load ptr, ptr %3, align 8
  %7 = load ptr, ptr %4, align 8
  %8 = icmp ne ptr %6, %7
  br i1 %8, label %9, label %14

9:                                                ; preds = %5
  %10 = load ptr, ptr %3, align 8
  call void @_ZSt8_DestroyIN18cmCTestTestHandler30cmCTestTestResourceRequirementEEvPT_(ptr noundef %10)
  br label %11

11:                                               ; preds = %9
  %12 = load ptr, ptr %3, align 8
  %13 = getelementptr inbounds %"struct.cmCTestTestHandler::cmCTestTestResourceRequirement", ptr %12, i32 1
  store ptr %13, ptr %3, align 8
  br label %5, !llvm.loop !9

14:                                               ; preds = %5
  ret void
}

; Function Attrs: mustprogress uwtable
define linkonce_odr dso_local void @_ZSt8_DestroyIPN18cmCTestTestHandler30cmCTestTestResourceRequirementEEvT_S3_(ptr noundef %0, ptr noundef %1) #5 comdat {
  %3 = alloca ptr, align 8
  %4 = alloca ptr, align 8
  store ptr %0, ptr %3, align 8
  store ptr %1, ptr %4, align 8
  %5 = load ptr, ptr %3, align 8
  %6 = load ptr, ptr %4, align 8
  call void @_ZNSt12_Destroy_auxILb0EE9__destroyIPN18cmCTestTestHandler30cmCTestTestResourceRequirementEEEvT_S5_(ptr noundef %5, ptr noundef %6)
  ret void
}

; Function Attrs: noreturn nounwind uwtable
define linkonce_odr hidden void @__clang_call_terminate(ptr noundef %0) #8 comdat {
  %2 = call ptr @__cxa_begin_catch(ptr %0) #3
  call void @_ZSt9terminatev() #13
  unreachable
}

; Function Attrs: mustprogress uwtable
define linkonce_odr dso_local void @_ZSt8_DestroyIPN18cmCTestTestHandler30cmCTestTestResourceRequirementES1_EvT_S3_RSaIT0_E(ptr noundef %0, ptr noundef %1, ptr noundef nonnull align 1 dereferenceable(1) %2) #5 comdat {
  %4 = alloca ptr, align 8
  %5 = alloca ptr, align 8
  %6 = alloca ptr, align 8
  store ptr %0, ptr %4, align 8
  store ptr %1, ptr %5, align 8
  store ptr %2, ptr %6, align 8
  %7 = load ptr, ptr %4, align 8
  %8 = load ptr, ptr %5, align 8
  call void @_ZSt8_DestroyIPN18cmCTestTestHandler30cmCTestTestResourceRequirementEEvT_S3_(ptr noundef %7, ptr noundef %8)
  ret void
}

; Function Attrs: mustprogress nounwind uwtable
define linkonce_odr dso_local noundef nonnull align 1 dereferenceable(1) ptr @_ZNSt12_Vector_baseIN18cmCTestTestHandler30cmCTestTestResourceRequirementESaIS1_EE19_M_get_Tp_allocatorEv(ptr noundef nonnull align 8 dereferenceable(24) %0) #4 comdat align 2 {
  %2 = alloca ptr, align 8
  store ptr %0, ptr %2, align 8
  %3 = load ptr, ptr %2, align 8
  %4 = getelementptr inbounds %"struct.std::_Vector_base", ptr %3, i32 0, i32 0
  ret ptr %4
}

; Function Attrs: mustprogress nounwind uwtable
define linkonce_odr dso_local void @_ZN9__gnu_cxx17__normal_iteratorIPSt6vectorIN18cmCTestTestHandler30cmCTestTestResourceRequirementESaIS3_EES1_IS5_SaIS5_EEEC2ERKS6_(ptr noundef nonnull align 8 dereferenceable(8) %0, ptr noundef nonnull align 8 dereferenceable(8) %1) unnamed_addr #4 comdat align 2 {
  %3 = alloca ptr, align 8
  %4 = alloca ptr, align 8
  store ptr %0, ptr %3, align 8
  store ptr %1, ptr %4, align 8
  %5 = load ptr, ptr %3, align 8
  %6 = getelementptr inbounds %"class.__gnu_cxx::__normal_iterator.8", ptr %5, i32 0, i32 0
  %7 = load ptr, ptr %4, align 8
  %8 = load ptr, ptr %7, align 8
  store ptr %8, ptr %6, align 8
  ret void
}

; Function Attrs: mustprogress uwtable
define linkonce_odr dso_local void @_ZNSt15__new_allocatorISt6vectorIN18cmCTestTestHandler30cmCTestTestResourceRequirementESaIS2_EEE9constructIS4_JRKS4_EEEvPT_DpOT0_(ptr noundef nonnull align 1 dereferenceable(1) %0, ptr noundef %1, ptr noundef nonnull align 8 dereferenceable(24) %2) #5 comdat align 2 {
  %4 = alloca ptr, align 8
  %5 = alloca ptr, align 8
  %6 = alloca ptr, align 8
  store ptr %0, ptr %4, align 8
  store ptr %1, ptr %5, align 8
  store ptr %2, ptr %6, align 8
  %7 = load ptr, ptr %5, align 8
  %8 = load ptr, ptr %6, align 8
  call void @_ZNSt6vectorIN18cmCTestTestHandler30cmCTestTestResourceRequirementESaIS1_EEC2ERKS3_(ptr noundef nonnull align 8 dereferenceable(24) %7, ptr noundef nonnull align 8 dereferenceable(24) %8)
  ret void
}

; Function Attrs: mustprogress nounwind uwtable
define linkonce_odr dso_local void @_ZNSt6vectorIN18cmCTestTestHandler30cmCTestTestResourceRequirementESaIS1_EE15_M_erase_at_endEPS1_(ptr noundef nonnull align 8 dereferenceable(24) %0, ptr noundef %1) #4 comdat align 2 personality ptr @__gxx_personality_v0 {
  %3 = alloca ptr, align 8
  %4 = alloca ptr, align 8
  %5 = alloca i64, align 8
  store ptr %0, ptr %3, align 8
  store ptr %1, ptr %4, align 8
  %6 = load ptr, ptr %3, align 8
  %7 = getelementptr inbounds %"struct.std::_Vector_base", ptr %6, i32 0, i32 0
  %8 = getelementptr inbounds %"struct.std::_Vector_base<cmCTestTestHandler::cmCTestTestResourceRequirement, std::allocator<cmCTestTestHandler::cmCTestTestResourceRequirement>>::_Vector_impl_data", ptr %7, i32 0, i32 1
  %9 = load ptr, ptr %8, align 8
  %10 = load ptr, ptr %4, align 8
  %11 = ptrtoint ptr %9 to i64
  %12 = ptrtoint ptr %10 to i64
  %13 = sub i64 %11, %12
  %14 = sdiv exact i64 %13, 40
  store i64 %14, ptr %5, align 8
  %15 = load i64, ptr %5, align 8
  %16 = icmp ne i64 %15, 0
  br i1 %16, label %17, label %27

17:                                               ; preds = %2
  %18 = load ptr, ptr %4, align 8
  %19 = getelementptr inbounds %"struct.std::_Vector_base", ptr %6, i32 0, i32 0
  %20 = getelementptr inbounds %"struct.std::_Vector_base<cmCTestTestHandler::cmCTestTestResourceRequirement, std::allocator<cmCTestTestHandler::cmCTestTestResourceRequirement>>::_Vector_impl_data", ptr %19, i32 0, i32 1
  %21 = load ptr, ptr %20, align 8
  %22 = call noundef nonnull align 1 dereferenceable(1) ptr @_ZNSt12_Vector_baseIN18cmCTestTestHandler30cmCTestTestResourceRequirementESaIS1_EE19_M_get_Tp_allocatorEv(ptr noundef nonnull align 8 dereferenceable(24) %6) #3
  invoke void @_ZSt8_DestroyIPN18cmCTestTestHandler30cmCTestTestResourceRequirementES1_EvT_S3_RSaIT0_E(ptr noundef %18, ptr noundef %21, ptr noundef nonnull align 1 dereferenceable(1) %22)
          to label %23 unwind label %28

23:                                               ; preds = %17
  %24 = load ptr, ptr %4, align 8
  %25 = getelementptr inbounds %"struct.std::_Vector_base", ptr %6, i32 0, i32 0
  %26 = getelementptr inbounds %"struct.std::_Vector_base<cmCTestTestHandler::cmCTestTestResourceRequirement, std::allocator<cmCTestTestHandler::cmCTestTestResourceRequirement>>::_Vector_impl_data", ptr %25, i32 0, i32 1
  store ptr %24, ptr %26, align 8
  br label %27

27:                                               ; preds = %23, %2
  ret void

28:                                               ; preds = %17
  %29 = landingpad { ptr, i32 }
          catch ptr null
  %30 = extractvalue { ptr, i32 } %29, 0
  call void @__clang_call_terminate(ptr %30) #13
  unreachable
}

; Function Attrs: mustprogress nounwind uwtable
define linkonce_odr dso_local ptr @_ZNSt6vectorIS_IN18cmCTestTestHandler30cmCTestTestResourceRequirementESaIS1_EESaIS3_EE3endEv(ptr noundef nonnull align 8 dereferenceable(24) %0) #4 comdat align 2 {
  %2 = alloca %"class.__gnu_cxx::__normal_iterator.8", align 8
  %3 = alloca ptr, align 8
  store ptr %0, ptr %3, align 8
  %4 = load ptr, ptr %3, align 8
  %5 = getelementptr inbounds %"struct.std::_Vector_base.4", ptr %4, i32 0, i32 0
  %6 = getelementptr inbounds %"struct.std::_Vector_base<std::vector<cmCTestTestHandler::cmCTestTestResourceRequirement>, std::allocator<std::vector<cmCTestTestHandler::cmCTestTestResourceRequirement>>>::_Vector_impl_data", ptr %5, i32 0, i32 1
  call void @_ZN9__gnu_cxx17__normal_iteratorIPSt6vectorIN18cmCTestTestHandler30cmCTestTestResourceRequirementESaIS3_EES1_IS5_SaIS5_EEEC2ERKS6_(ptr noundef nonnull align 8 dereferenceable(8) %2, ptr noundef nonnull align 8 dereferenceable(8) %6) #3
  %7 = getelementptr inbounds %"class.__gnu_cxx::__normal_iterator.8", ptr %2, i32 0, i32 0
  %8 = load ptr, ptr %7, align 8
  ret ptr %8
}

; Function Attrs: mustprogress uwtable
define linkonce_odr dso_local void @_ZNSt16allocator_traitsISaISt6vectorIN18cmCTestTestHandler30cmCTestTestResourceRequirementESaIS2_EEEE9constructIS4_JRKS4_EEEvRS5_PT_DpOT0_(ptr noundef nonnull align 1 dereferenceable(1) %0, ptr noundef %1, ptr noundef nonnull align 8 dereferenceable(24) %2) #5 comdat align 2 {
  %4 = alloca ptr, align 8
  %5 = alloca ptr, align 8
  %6 = alloca ptr, align 8
  store ptr %0, ptr %4, align 8
  store ptr %1, ptr %5, align 8
  store ptr %2, ptr %6, align 8
  %7 = load ptr, ptr %4, align 8
  %8 = load ptr, ptr %5, align 8
  %9 = load ptr, ptr %6, align 8
  call void @_ZNSt15__new_allocatorISt6vectorIN18cmCTestTestHandler30cmCTestTestResourceRequirementESaIS2_EEE9constructIS4_JRKS4_EEEvPT_DpOT0_(ptr noundef nonnull align 1 dereferenceable(1) %7, ptr noundef %8, ptr noundef nonnull align 8 dereferenceable(24) %9)
  ret void
}

; Function Attrs: mustprogress nounwind uwtable
define linkonce_odr dso_local void @_ZNSt6vectorIN18cmCTestTestHandler30cmCTestTestResourceRequirementESaIS1_EE5clearEv(ptr noundef nonnull align 8 dereferenceable(24) %0) #4 comdat align 2 {
  %2 = alloca ptr, align 8
  store ptr %0, ptr %2, align 8
  %3 = load ptr, ptr %2, align 8
  %4 = getelementptr inbounds %"struct.std::_Vector_base", ptr %3, i32 0, i32 0
  %5 = getelementptr inbounds %"struct.std::_Vector_base<cmCTestTestHandler::cmCTestTestResourceRequirement, std::allocator<cmCTestTestHandler::cmCTestTestResourceRequirement>>::_Vector_impl_data", ptr %4, i32 0, i32 0
  %6 = load ptr, ptr %5, align 8
  call void @_ZNSt6vectorIN18cmCTestTestHandler30cmCTestTestResourceRequirementESaIS1_EE15_M_erase_at_endEPS1_(ptr noundef nonnull align 8 dereferenceable(24) %3, ptr noundef %6) #3
  ret void
}

; Function Attrs: mustprogress uwtable
define linkonce_odr dso_local void @_ZNSt6vectorIS_IN18cmCTestTestHandler30cmCTestTestResourceRequirementESaIS1_EESaIS3_EE9push_backERKS3_(ptr noundef nonnull align 8 dereferenceable(24) %0, ptr noundef nonnull align 8 dereferenceable(24) %1) #5 comdat align 2 {
  %3 = alloca ptr, align 8
  %4 = alloca ptr, align 8
  %5 = alloca %"class.__gnu_cxx::__normal_iterator.8", align 8
  store ptr %0, ptr %3, align 8
  store ptr %1, ptr %4, align 8
  %6 = load ptr, ptr %3, align 8
  %7 = getelementptr inbounds %"struct.std::_Vector_base.4", ptr %6, i32 0, i32 0
  %8 = getelementptr inbounds %"struct.std::_Vector_base<std::vector<cmCTestTestHandler::cmCTestTestResourceRequirement>, std::allocator<std::vector<cmCTestTestHandler::cmCTestTestResourceRequirement>>>::_Vector_impl_data", ptr %7, i32 0, i32 1
  %9 = load ptr, ptr %8, align 8
  %10 = getelementptr inbounds %"struct.std::_Vector_base.4", ptr %6, i32 0, i32 0
  %11 = getelementptr inbounds %"struct.std::_Vector_base<std::vector<cmCTestTestHandler::cmCTestTestResourceRequirement>, std::allocator<std::vector<cmCTestTestHandler::cmCTestTestResourceRequirement>>>::_Vector_impl_data", ptr %10, i32 0, i32 2
  %12 = load ptr, ptr %11, align 8
  %13 = icmp ne ptr %9, %12
  br i1 %13, label %14, label %24

14:                                               ; preds = %2
  %15 = getelementptr inbounds %"struct.std::_Vector_base.4", ptr %6, i32 0, i32 0
  %16 = getelementptr inbounds %"struct.std::_Vector_base.4", ptr %6, i32 0, i32 0
  %17 = getelementptr inbounds %"struct.std::_Vector_base<std::vector<cmCTestTestHandler::cmCTestTestResourceRequirement>, std::allocator<std::vector<cmCTestTestHandler::cmCTestTestResourceRequirement>>>::_Vector_impl_data", ptr %16, i32 0, i32 1
  %18 = load ptr, ptr %17, align 8
  %19 = load ptr, ptr %4, align 8
  call void @_ZNSt16allocator_traitsISaISt6vectorIN18cmCTestTestHandler30cmCTestTestResourceRequirementESaIS2_EEEE9constructIS4_JRKS4_EEEvRS5_PT_DpOT0_(ptr noundef nonnull align 1 dereferenceable(1) %15, ptr noundef %18, ptr noundef nonnull align 8 dereferenceable(24) %19)
  %20 = getelementptr inbounds %"struct.std::_Vector_base.4", ptr %6, i32 0, i32 0
  %21 = getelementptr inbounds %"struct.std::_Vector_base<std::vector<cmCTestTestHandler::cmCTestTestResourceRequirement>, std::allocator<std::vector<cmCTestTestHandler::cmCTestTestResourceRequirement>>>::_Vector_impl_data", ptr %20, i32 0, i32 1
  %22 = load ptr, ptr %21, align 8
  %23 = getelementptr inbounds %"class.std::vector", ptr %22, i32 1
  store ptr %23, ptr %21, align 8
  br label %30

24:                                               ; preds = %2
  %25 = call ptr @_ZNSt6vectorIS_IN18cmCTestTestHandler30cmCTestTestResourceRequirementESaIS1_EESaIS3_EE3endEv(ptr noundef nonnull align 8 dereferenceable(24) %6) #3
  %26 = getelementptr inbounds %"class.__gnu_cxx::__normal_iterator.8", ptr %5, i32 0, i32 0
  store ptr %25, ptr %26, align 8
  %27 = load ptr, ptr %4, align 8
  %28 = getelementptr inbounds %"class.__gnu_cxx::__normal_iterator.8", ptr %5, i32 0, i32 0
  %29 = load ptr, ptr %28, align 8
  call void @_ZNSt6vectorIS_IN18cmCTestTestHandler30cmCTestTestResourceRequirementESaIS1_EESaIS3_EE17_M_realloc_insertIJRKS3_EEEvN9__gnu_cxx17__normal_iteratorIPS3_S5_EEDpOT_(ptr noundef nonnull align 8 dereferenceable(24) %6, ptr %29, ptr noundef nonnull align 8 dereferenceable(24) %27)
  br label %30

30:                                               ; preds = %24, %14
  ret void
}

; Function Attrs: mustprogress uwtable
define dso_local void @_ZN32cmCTestResourceGroupsLexerHelper12WriteProcessEv(ptr noundef nonnull align 8 dereferenceable(80) %0) #5 align 2 {
  %2 = alloca ptr, align 8
  %3 = alloca i32, align 4
  store ptr %0, ptr %2, align 8
  %4 = load ptr, ptr %2, align 8
  store i32 0, ptr %3, align 4
  br label %5

5:                                                ; preds = %14, %1
  %6 = load i32, ptr %3, align 4
  %7 = getelementptr inbounds %class.cmCTestResourceGroupsLexerHelper, ptr %4, i32 0, i32 1
  %8 = load i32, ptr %7, align 8
  %9 = icmp ult i32 %6, %8
  br i1 %9, label %10, label %17

10:                                               ; preds = %5
  %11 = getelementptr inbounds %class.cmCTestResourceGroupsLexerHelper, ptr %4, i32 0, i32 0
  %12 = load ptr, ptr %11, align 8
  %13 = getelementptr inbounds %class.cmCTestResourceGroupsLexerHelper, ptr %4, i32 0, i32 4
  call void @_ZNSt6vectorIS_IN18cmCTestTestHandler30cmCTestTestResourceRequirementESaIS1_EESaIS3_EE9push_backERKS3_(ptr noundef nonnull align 8 dereferenceable(24) %12, ptr noundef nonnull align 8 dereferenceable(24) %13)
  br label %14

14:                                               ; preds = %10
  %15 = load i32, ptr %3, align 4
  %16 = add i32 %15, 1
  store i32 %16, ptr %3, align 4
  br label %5, !llvm.loop !5

17:                                               ; preds = %5
  %18 = getelementptr inbounds %class.cmCTestResourceGroupsLexerHelper, ptr %4, i32 0, i32 4
  call void @_ZNSt6vectorIN18cmCTestTestHandler30cmCTestTestResourceRequirementESaIS1_EE5clearEv(ptr noundef nonnull align 8 dereferenceable(24) %18) #3
  %19 = getelementptr inbounds %class.cmCTestResourceGroupsLexerHelper, ptr %4, i32 0, i32 1
  store i32 1, ptr %19, align 8
  ret void
}