; Function Attrs: mustprogress uwtable
define dso_local void @_ZN32cmCTestResourceGroupsLexerHelper12WriteProcessEv(ptr noundef nonnull align 8 dereferenceable(80) %0) local_unnamed_addr #4 align 2 personality ptr @__gxx_personality_v0 {
  %2 = getelementptr inbounds nuw i8, ptr %0, i64 8
  %3 = load i32, ptr %2, align 8
  %.not = icmp eq i32 %3, 0
  br i1 %.not, label %._crit_edge, label %.lr.ph

.lr.ph:                                           ; preds = %1
  %4 = getelementptr inbounds nuw i8, ptr %0, i64 56
  br label %5

5:                                                ; preds = %.lr.ph, %_ZNSt6vectorIS_IN18cmCTestTestHandler30cmCTestTestResourceRequirementESaIS1_EESaIS3_EE9push_backERKS3_.exit
  %.02 = phi i32 [ 0, %.lr.ph ], [ %15, %_ZNSt6vectorIS_IN18cmCTestTestHandler30cmCTestTestResourceRequirementESaIS1_EESaIS3_EE9push_backERKS3_.exit ]
  %6 = load ptr, ptr %0, align 8
  %7 = getelementptr inbounds nuw i8, ptr %6, i64 8
  %8 = load ptr, ptr %7, align 8
  %9 = getelementptr inbounds nuw i8, ptr %6, i64 16
  %10 = load ptr, ptr %9, align 8
  %.not.i = icmp eq ptr %8, %10
  br i1 %.not.i, label %14, label %11

11:                                               ; preds = %5
  tail call void @_ZNSt6vectorIN18cmCTestTestHandler30cmCTestTestResourceRequirementESaIS1_EEC2ERKS3_(ptr noundef nonnull align 8 dereferenceable(24) %8, ptr noundef nonnull align 8 dereferenceable(24) %4)
  %12 = load ptr, ptr %7, align 8
  %13 = getelementptr inbounds nuw i8, ptr %12, i64 24
  store ptr %13, ptr %7, align 8
  br label %_ZNSt6vectorIS_IN18cmCTestTestHandler30cmCTestTestResourceRequirementESaIS1_EESaIS3_EE9push_backERKS3_.exit

14:                                               ; preds = %5
  tail call void @_ZNSt6vectorIS_IN18cmCTestTestHandler30cmCTestTestResourceRequirementESaIS1_EESaIS3_EE17_M_realloc_insertIJRKS3_EEEvN9__gnu_cxx17__normal_iteratorIPS3_S5_EEDpOT_(ptr noundef nonnull align 8 dereferenceable(24) %6, ptr %8, ptr noundef nonnull align 8 dereferenceable(24) %4)
  br label %_ZNSt6vectorIS_IN18cmCTestTestHandler30cmCTestTestResourceRequirementESaIS1_EESaIS3_EE9push_backERKS3_.exit

_ZNSt6vectorIS_IN18cmCTestTestHandler30cmCTestTestResourceRequirementESaIS1_EESaIS3_EE9push_backERKS3_.exit: ; preds = %11, %14
  %15 = add nuw i32 %.02, 1
  %16 = load i32, ptr %2, align 8
  %17 = icmp ult i32 %15, %16
  br i1 %17, label %5, label %._crit_edge, !llvm.loop !5

._crit_edge:                                      ; preds = %_ZNSt6vectorIS_IN18cmCTestTestHandler30cmCTestTestResourceRequirementESaIS1_EESaIS3_EE9push_backERKS3_.exit, %1
  %18 = getelementptr inbounds nuw i8, ptr %0, i64 56
  %19 = load ptr, ptr %18, align 8
  %20 = getelementptr inbounds nuw i8, ptr %0, i64 64
  %21 = load ptr, ptr %20, align 8
  %.not.i.i = icmp eq ptr %21, %19
  br i1 %.not.i.i, label %_ZNSt6vectorIN18cmCTestTestHandler30cmCTestTestResourceRequirementESaIS1_EE5clearEv.exit, label %.lr.ph.i.i.i.i.i

.lr.ph.i.i.i.i.i:                                 ; preds = %._crit_edge, %.lr.ph.i.i.i.i.i
  %.05.i.i.i.i.i = phi ptr [ %22, %.lr.ph.i.i.i.i.i ], [ %19, %._crit_edge ]
  tail call void @_ZNSt7__cxx1112basic_stringIcSt11char_traitsIcESaIcEED1Ev(ptr noundef nonnull align 8 dereferenceable(40) %.05.i.i.i.i.i) #16
  %22 = getelementptr inbounds nuw i8, ptr %.05.i.i.i.i.i, i64 40
  %.not.i.i.i.i.i = icmp eq ptr %22, %21
  br i1 %.not.i.i.i.i.i, label %_ZSt8_DestroyIPN18cmCTestTestHandler30cmCTestTestResourceRequirementES1_EvT_S3_RSaIT0_E.exit.i.i, label %.lr.ph.i.i.i.i.i, !llvm.loop !7

_ZSt8_DestroyIPN18cmCTestTestHandler30cmCTestTestResourceRequirementES1_EvT_S3_RSaIT0_E.exit.i.i: ; preds = %.lr.ph.i.i.i.i.i
  store ptr %19, ptr %20, align 8
  br label %_ZNSt6vectorIN18cmCTestTestHandler30cmCTestTestResourceRequirementESaIS1_EE5clearEv.exit

_ZNSt6vectorIN18cmCTestTestHandler30cmCTestTestResourceRequirementESaIS1_EE5clearEv.exit: ; preds = %._crit_edge, %_ZSt8_DestroyIPN18cmCTestTestHandler30cmCTestTestResourceRequirementES1_EvT_S3_RSaIT0_E.exit.i.i
  store i32 1, ptr %2, align 8
  ret void
}